; Function Attrs: mustprogress nounwind uwtable
define dso_local noundef zeroext i1 @_ZN4llvm12RISCVTTIImpl26isLegalMaskedCompressStoreEPNS_4TypeENS_5AlignE(ptr noundef nonnull align 8 dereferenceable(32) %0, ptr noundef %1, i8 %2) local_unnamed_addr #0 align 2 {
  %4 = getelementptr inbounds nuw i8, ptr %1, i64 8
  %5 = load i32, ptr %4, align 8
  %6 = and i32 %5, 255
  %7 = add nsw i32 %6, -19
  %spec.select.i.i.i.i.i.i.i.i = icmp ult i32 %7, -2
  %.not8 = icmp eq ptr %1, null
  %.not = or i1 %.not8, %spec.select.i.i.i.i.i.i.i.i
  br i1 %.not, label %12, label %8

8:                                                ; preds = %3
  %9 = tail call noundef zeroext i1 @_ZNK4llvm4Type12isScalableTyEv(ptr noundef nonnull align 8 dereferenceable(24) %1) #21
  br i1 %9, label %12, label %10

10:                                               ; preds = %8
  %11 = tail call noundef zeroext i1 @_ZN4llvm12RISCVTTIImpl22isLegalMaskedLoadStoreEPNS_4TypeENS_5AlignE(ptr noundef nonnull align 8 dereferenceable(32) %0, ptr noundef nonnull %1, i8 %2)
  br label %12

12:                                               ; preds = %10, %3, %8
  %.0 = phi i1 [ false, %8 ], [ false, %3 ], [ %11, %10 ]
  ret i1 %.0
}